target datalayout = "e-m:e-p270:32:32-p271:32:32-p272:64:64-i64:64-i128:128-f80:128-n8:16:32:64-S128"
target triple = "x86_64-pc-linux-gnu"

%struct.b2WorldId = type { i16, i16 }
%struct.b2JointId = type { i32, i16, i16 }
%struct.b2BodyId = type { i32, i16, i16 }
%struct.b2Vec2 = type { float, float }
%struct.b2Profile = type { float, float, float, float, float, float, float, float, float, float, float, float, float, float, float, float, float, float, float, float, float, float }
%class.Sample = type { ptr, ptr, ptr, ptr, i32, i32, %struct.b2BodyId, i32, %struct.b2WorldId, %struct.b2JointId, i32, i32, %struct.b2Profile, %struct.b2Profile }
%struct.Settings = type { i32, i32, i32, float, i32, i32, i8, i8, i8, i8, i8, i8, i8, i8, i8, i8, i8, i8, i8, i8, i8, i8, i8, i8, i8, i8 }
%struct.b2WorldDef = type { %struct.b2Vec2, float, float, float, float, float, float, float, float, ptr, ptr, i8, i8, i32, ptr, ptr, ptr, ptr, i32 }

@_ZL14b2_nullWorldId = internal constant %struct.b2WorldId zeroinitializer, align 2

; Function Attrs: mustprogress uwtable
define dso_local void @_ZN6Sample11CreateWorldEv(ptr noundef nonnull align 8 dereferenceable(248) %0) #5 align 2 {
  %2 = alloca ptr, align 8
  %3 = alloca %struct.b2WorldId, align 2
  %4 = alloca %struct.b2WorldDef, align 8
  %5 = alloca %struct.b2WorldId, align 2
  store ptr %0, ptr %2, align 8, !tbaa !15
  %6 = load ptr, ptr %2, align 8
  %7 = getelementptr inbounds nuw %class.Sample, ptr %6, i32 0, i32 8
  %8 = getelementptr inbounds nuw %struct.b2WorldId, ptr %7, i32 0, i32 0
  %9 = load i16, ptr %8, align 4, !tbaa !55
  %10 = zext i16 %9 to i32
  %11 = icmp ne i32 %10, 0
  br i1 %11, label %12, label %16

12:                                               ; preds = %1
  %13 = getelementptr inbounds nuw %class.Sample, ptr %6, i32 0, i32 8
  call void @llvm.memcpy.p0.p0.i64(ptr align 2 %3, ptr align 4 %13, i64 4, i1 false), !tbaa.struct !36
  %14 = load i32, ptr %3, align 2
  call void @b2DestroyWorld(i32 %14)
  %15 = getelementptr inbounds nuw %class.Sample, ptr %6, i32 0, i32 8
  call void @llvm.memcpy.p0.p0.i64(ptr align 4 %15, ptr align 2 @_ZL14b2_nullWorldId, i64 4, i1 false), !tbaa.struct !36
  br label %16

16:                                               ; preds = %12, %1
  call void @llvm.lifetime.start.p0(i64 104, ptr %4) #19
  call void @b2DefaultWorldDef(ptr dead_on_unwind writable sret(%struct.b2WorldDef) align 8 %4)
  %17 = getelementptr inbounds nuw %class.Sample, ptr %6, i32 0, i32 1
  %18 = load ptr, ptr %17, align 8, !tbaa !44
  %19 = getelementptr inbounds nuw %struct.Settings, ptr %18, i32 0, i32 5
  %20 = load i32, ptr %19, align 4, !tbaa !30
  %21 = getelementptr inbounds nuw %struct.b2WorldDef, ptr %4, i32 0, i32 13
  store i32 %20, ptr %21, align 4, !tbaa !56
  %22 = getelementptr inbounds nuw %struct.b2WorldDef, ptr %4, i32 0, i32 14
  store ptr @_ZL11EnqueueTaskPFviijPvEiiS_S_, ptr %22, align 8, !tbaa !59
  %23 = getelementptr inbounds nuw %struct.b2WorldDef, ptr %4, i32 0, i32 15
  store ptr @_ZL10FinishTaskPvS_, ptr %23, align 8, !tbaa !60
  %24 = getelementptr inbounds nuw %struct.b2WorldDef, ptr %4, i32 0, i32 16
  store ptr %6, ptr %24, align 8, !tbaa !61
  %25 = getelementptr inbounds nuw %class.Sample, ptr %6, i32 0, i32 1
  %26 = load ptr, ptr %25, align 8, !tbaa !44
  %27 = getelementptr inbounds nuw %struct.Settings, ptr %26, i32 0, i32 22
  %28 = load i8, ptr %27, align 4, !tbaa !62, !range !63, !noundef !64
  %29 = trunc i8 %28 to i1
  %30 = getelementptr inbounds nuw %struct.b2WorldDef, ptr %4, i32 0, i32 11
  %31 = zext i1 %29 to i8
  store i8 %31, ptr %30, align 8, !tbaa !65
  call void @llvm.lifetime.start.p0(i64 4, ptr %5) #19
  %32 = call i32 @b2CreateWorld(ptr noundef %4)
  store i32 %32, ptr %5, align 2
  %33 = getelementptr inbounds nuw %class.Sample, ptr %6, i32 0, i32 8
  call void @llvm.memcpy.p0.p0.i64(ptr align 4 %33, ptr align 2 %5, i64 4, i1 false), !tbaa.struct !36
  call void @llvm.lifetime.end.p0(i64 4, ptr %5) #19
  call void @llvm.lifetime.end.p0(i64 104, ptr %4) #19
  ret void
}