; Function Attrs: mustprogress uwtable
define dso_local void @_ZN6Sample11CreateWorldEv(ptr noundef nonnull align 8 dereferenceable(248) %0) local_unnamed_addr #9 align 2 {
  %2 = alloca %struct.b2WorldDef, align 8
  %3 = getelementptr inbounds nuw i8, ptr %0, i64 52
  %4 = load i16, ptr %3, align 4, !tbaa !57
  %.not = icmp eq i16 %4, 0
  br i1 %.not, label %6, label %5

5:                                                ; preds = %1
  %.sroa.01.0.copyload = load i32, ptr %3, align 4
  tail call void @b2DestroyWorld(i32 %.sroa.01.0.copyload)
  store i32 0, ptr %3, align 4
  br label %6

6:                                                ; preds = %5, %1
  call void @llvm.lifetime.start.p0(i64 104, ptr nonnull %2) #23
  call void @b2DefaultWorldDef(ptr dead_on_unwind nonnull writable sret(%struct.b2WorldDef) align 8 %2)
  %7 = getelementptr inbounds nuw i8, ptr %0, i64 8
  %8 = load ptr, ptr %7, align 8, !tbaa !46
  %9 = getelementptr inbounds nuw i8, ptr %8, i64 20
  %10 = load i32, ptr %9, align 4, !tbaa !32
  %11 = getelementptr inbounds nuw i8, ptr %2, i64 60
  store i32 %10, ptr %11, align 4, !tbaa !47
  %12 = getelementptr inbounds nuw i8, ptr %2, i64 64
  store ptr @_ZL11EnqueueTaskPFviijPvEiiS_S_, ptr %12, align 8, !tbaa !50
  %13 = getelementptr inbounds nuw i8, ptr %2, i64 72
  store ptr @_ZL10FinishTaskPvS_, ptr %13, align 8, !tbaa !51
  %14 = getelementptr inbounds nuw i8, ptr %2, i64 80
  store ptr %0, ptr %14, align 8, !tbaa !52
  %15 = getelementptr inbounds nuw i8, ptr %8, i64 40
  %16 = load i8, ptr %15, align 4, !tbaa !53, !range !54, !noundef !55
  %17 = getelementptr inbounds nuw i8, ptr %2, i64 56
  store i8 %16, ptr %17, align 8, !tbaa !56
  %18 = call i32 @b2CreateWorld(ptr noundef nonnull %2)
  store i32 %18, ptr %3, align 4
  call void @llvm.lifetime.end.p0(i64 104, ptr nonnull %2) #23
  ret void
}